target datalayout = "e-m:e-p270:32:32-p271:32:32-p272:64:64-i64:64-i128:128-f80:128-n8:16:32:64-S128"
target triple = "x86_64-pc-linux-gnu"

@.str.6 = private unnamed_addr constant [5 x i8] c"gmic\00", align 1
@.str.7 = private unnamed_addr constant [7 x i8] c".cimgz\00", align 1

; Function Attrs: nounwind uwtable
define hidden void @get_cache_filename(ptr noundef %0, ptr noundef %1) #0 {
  %3 = alloca ptr, align 8
  %4 = alloca ptr, align 8
  %5 = alloca ptr, align 8
  %6 = alloca ptr, align 8
  store ptr %0, ptr %3, align 8, !tbaa !41
  store ptr %1, ptr %4, align 8, !tbaa !41
  call void @llvm.lifetime.start.p0(i64 8, ptr %5) #13
  %7 = call ptr @g_get_user_cache_dir()
  %8 = call noalias ptr (ptr, ...) @g_build_filename(ptr noundef %7, ptr noundef @.str.6, ptr noundef null)
  store ptr %8, ptr %5, align 8, !tbaa !41
  call void @llvm.lifetime.start.p0(i64 8, ptr %6) #13
  %9 = load ptr, ptr %5, align 8, !tbaa !41
  %10 = load ptr, ptr %3, align 8, !tbaa !41
  %11 = call noalias ptr (ptr, ...) @g_build_filename(ptr noundef %9, ptr noundef %10, ptr noundef null)
  store ptr %11, ptr %6, align 8, !tbaa !41
  %12 = load ptr, ptr %4, align 8, !tbaa !41
  %13 = load ptr, ptr %6, align 8, !tbaa !41
  %14 = call i64 @g_strlcpy(ptr noundef %12, ptr noundef %13, i64 noundef 512)
  %15 = load ptr, ptr %4, align 8, !tbaa !41
  %16 = load ptr, ptr %4, align 8, !tbaa !41
  %17 = call i64 @strlen(ptr noundef %16) #15
  %18 = getelementptr inbounds nuw i8, ptr %15, i64 %17
  %19 = load ptr, ptr %6, align 8, !tbaa !41
  %20 = call i64 @strlen(ptr noundef %19) #15
  %21 = sub i64 512, %20
  %22 = call i64 @g_strlcpy(ptr noundef %18, ptr noundef @.str.7, i64 noundef %21)
  %23 = load ptr, ptr %5, align 8, !tbaa !41
  call void @g_free(ptr noundef %23)
  %24 = load ptr, ptr %6, align 8, !tbaa !41
  call void @g_free(ptr noundef %24)
  call void @llvm.lifetime.end.p0(i64 8, ptr %6) #13
  call void @llvm.lifetime.end.p0(i64 8, ptr %5) #13
  ret void
}