; Function Attrs: nounwind uwtable
define hidden void @get_cache_filename(ptr noundef %0, ptr noundef %1) local_unnamed_addr #1 {
  %3 = tail call ptr @g_get_user_cache_dir() #25
  %4 = tail call noalias ptr (ptr, ...) @g_build_filename(ptr noundef %3, ptr noundef nonnull @.str.6, ptr noundef null) #25
  %5 = tail call noalias ptr (ptr, ...) @g_build_filename(ptr noundef %4, ptr noundef %0, ptr noundef null) #25
  %6 = tail call i64 @g_strlcpy(ptr noundef %1, ptr noundef %5, i64 noundef 512) #25
  %7 = tail call i64 @strlen(ptr noundef nonnull dereferenceable(1) %1) #27
  %8 = getelementptr inbounds nuw i8, ptr %1, i64 %7
  %9 = tail call i64 @strlen(ptr noundef nonnull dereferenceable(1) %5) #27
  %10 = sub i64 512, %9
  %11 = tail call i64 @g_strlcpy(ptr noundef nonnull %8, ptr noundef nonnull @.str.7, i64 noundef %10) #25
  tail call void @g_free(ptr noundef %4) #25
  tail call void @g_free(ptr noundef nonnull %5) #25
  ret void
}